; Function Attrs: null_pointer_is_valid sspstrong uwtable
define internal void @dtap_gmm_ident_req(ptr noundef %0, ptr noundef %1, ptr noundef initializes((348, 352)) %2, i32 noundef %3, i32 noundef %4) #1 {
  %6 = getelementptr inbounds nuw i8, ptr %2, i64 348
  store i32 0, ptr %6, align 4
  %7 = icmp sgt i32 %4, 0
  br i1 %7, label %8, label %13

8:                                                ; preds = %5
  %9 = tail call zeroext i16 @elem_v_short(ptr noundef %0, ptr noundef %1, ptr noundef %2, i32 noundef 5, i32 noundef 12, i32 noundef %3, i32 noundef 1)
  %10 = tail call zeroext i16 @elem_v_short(ptr noundef %0, ptr noundef %1, ptr noundef %2, i32 noundef 5, i32 noundef 9, i32 noundef %3, i32 noundef 2)
  %11 = add i32 %3, 1
  %12 = add nsw i32 %4, -1
  br label %17

13:                                               ; preds = %5
  %14 = tail call ptr @get_gsm_a_msg_string(i32 noundef 5, i32 noundef 12)
  %15 = tail call ptr @get_gsm_a_msg_string(i32 noundef 5, i32 noundef 9)
  %16 = tail call ptr (ptr, ptr, ptr, ptr, i32, i32, ptr, ...) @proto_tree_add_expert_format(ptr noundef %1, ptr noundef %2, ptr noundef nonnull @ei_gsm_a_gm_missing_mandatory_element, ptr noundef %0, i32 noundef %3, i32 noundef 0, ptr noundef nonnull @.str.1096, ptr noundef %14, ptr noundef %15)
  br label %17

17:                                               ; preds = %13, %8
  %.025 = phi i32 [ %11, %8 ], [ %3, %13 ]
  %.0 = phi i32 [ %12, %8 ], [ %4, %13 ]
  %.not = icmp eq i32 %.0, 0
  br i1 %.not, label %20, label %18

18:                                               ; preds = %17
  %19 = tail call ptr @proto_tree_add_expert(ptr noundef %1, ptr noundef %2, ptr noundef nonnull @ei_gsm_a_gm_extraneous_data, ptr noundef %0, i32 noundef %.025, i32 noundef %.0)
  br label %20

20:                                               ; preds = %18, %17
  ret void
}